(dp0
V "
p1
(lp2
(dp3
S'city'
p4
Vwww.w3.org/TR/xhtml1/DTD/xhtml1-strict.dtd">
p5
sS'state'
p6
g1
sasV//
p7
(lp8
(dp9
g4
VvaScript shows and hides the drop-down menus. In order for it to
p10
sg6
g7
sa(dp11
g4
Vmple: "geoOuter" is the ID of the outer div for the Geography me
p12
sg6
V//
p13
sa(dp14
g4
V"geoTab" is the ID of the li for the Geography main menu
p15
sg6
V//
p16
sa(dp17
g4
V"geoAnchor" is the ID for the anchor tag containing the "
p18
sg6
V//
p19
sa(dp20
g4
Vunction determines whether the event is the equivalent of the mi
p21
sg6
V//
p22
sa(dp23
g4
Veave or mouseenter events.
p24
sg6
V//
p25
sa(dp26
g4
Vript>
p27
sg6
V//
p28
sa(dp29
g4
VA[
p30
sg6
V//
p31
sa(dp32
g4
V
p33
sg6
V//
p34
sasV<t
p35
(lp36
(dp37
g4
VS. Census Bureau:  Page not found</title>
p38
sg6
g35
sasV<u
p39
(lp40
(dp41
g4
V="margin: 0pt; padding: 1px 0; list-style: none outside none; co
p42
sg6
g39
sa(dp43
g4
g33
sg6
V<u
p44
sasV<s
p45
(lp46
(dp47
g4
Vrc="/main/javascript/s_code.js" type="text/javascript"></script>
p48
sg6
g45
sa(dp49
g4
Vype="text/javascript">
p50
sg6
V<s
p51
sa(dp52
g4
Vype="text/javascript">
p53
sg6
V<s
p54
sa(dp55
g4
Vype="text/javascript"><!--
p56
sg6
V<s
p57
sa(dp58
g4
Vype="text/javascript" src="http://www.census.gov/fsrscripts/fore
p59
sg6
V<s
p60
sa(dp61
g4
Vype="text/javascript" src="http://www.census.gov/fsrscripts/fore
p62
sg6
V<s
p63
sa(dp64
g4
Vype="text/javascript">
p65
sg6
V<s
p66
sa(dp67
g4
Vype="text/javascript">
p68
sg6
V<s
p69
sasV<a
p70
(lp71
(dp72
g4
V#SKIP_HDR" class="skiplink ui-state-highlight ui-corner-all" tit
p73
sg6
g70
sa(dp74
g4
VSKIP_HDR"></a>
p75
sg6
V<a
p76
sa(dp77
g4
VSKIP_FTR"></a>
p78
sg6
V<a
p79
sasV--
p80
(lp81
(dp82
g4
g33
sg6
g80
sasV\u000a
p83
(lp84
(dp85
g4
g33
sg6
V\u000a
p86
sa(dp87
g4
g33
sg6
V\u000a
p88
sa(dp89
g4
g33
sg6
V\u000a
p90
sa(dp91
g4
g33
sg6
V\u000a
p92
sa(dp93
g4
g33
sg6
V\u000a
p94
sa(dp95
g4
g33
sg6
V\u000a
p96
sa(dp97
g4
g33
sg6
V\u000a
p98
sa(dp99
g4
g33
sg6
V\u000a
p100
sa(dp101
g4
g33
sg6
V\u000a
p102
sa(dp103
g4
g33
sg6
V\u000a
p104
sa(dp105
g4
g33
sg6
V\u000a
p106
sa(dp107
g4
g33
sg6
V\u000a
p108
sa(dp109
g4
g33
sg6
V\u000a
p110
sa(dp111
g4
g33
sg6
V\u000a
p112
sa(dp113
g4
g33
sg6
V\u000a
p114
sa(dp115
g4
g33
sg6
V\u000a
p116
sa(dp117
g4
g33
sg6
V\u000a
p118
sa(dp119
g4
g33
sg6
V\u000a
p120
sa(dp121
g4
g33
sg6
V\u000a
p122
sa(dp123
g4
g33
sg6
V\u000a
p124
sa(dp125
g4
g33
sg6
V\u000a
p126
sa(dp127
g4
g33
sg6
V\u000a
p128
sa(dp129
g4
g33
sg6
V\u000a
p130
sa(dp131
g4
g33
sg6
V\u000a
p132
sa(dp133
g4
g33
sg6
V\u000a
p134
sa(dp135
g4
g33
sg6
V\u000a
p136
sa(dp137
g4
g33
sg6
V\u000a
p138
sa(dp139
g4
g33
sg6
V\u000a
p140
sa(dp141
g4
g33
sg6
V\u000a
p142
sa(dp143
g4
g33
sg6
V\u000a
p144
sa(dp145
g4
g33
sg6
V\u000a
p146
sa(dp147
g4
g33
sg6
V\u000a
p148
sa(dp149
g4
g33
sg6
V\u000a
p150
sa(dp151
g4
g33
sg6
V\u000a
p152
sa(dp153
g4
g33
sg6
V\u000a
p154
sa(dp155
g4
g33
sg6
V\u000a
p156
sa(dp157
g4
g33
sg6
V\u000a
p158
sa(dp159
g4
g33
sg6
V\u000a
p160
sa(dp161
g4
g33
sg6
V\u000a
p162
sa(dp163
g4
g33
sg6
V\u000a
p164
sa(dp165
g4
g33
sg6
V\u000a
p166
sa(dp167
g4
g33
sg6
V\u000a
p168
sa(dp169
g4
g33
sg6
V\u000a
p170
sa(dp171
g4
g33
sg6
V\u000a
p172
sa(dp173
g4
g33
sg6
V\u000a
p174
sa(dp175
g4
g33
sg6
V\u000a
p176
sa(dp177
g4
g33
sg6
V\u000a
p178
sa(dp179
g4
g33
sg6
V\u000a
p180
sa(dp181
g4
g33
sg6
V\u000a
p182
sa(dp183
g4
g33
sg6
V\u000a
p184
sa(dp185
g4
g33
sg6
V\u000a
p186
sa(dp187
g4
g33
sg6
V\u000a
p188
sa(dp189
g4
g33
sg6
V\u000a
p190
sa(dp191
g4
g33
sg6
V\u000a
p192
sa(dp193
g4
g33
sg6
V\u000a
p194
sa(dp195
g4
g33
sg6
V\u000a
p196
sa(dp197
g4
g33
sg6
V\u000a
p198
sa(dp199
g4
g33
sg6
V\u000a
p200
sa(dp201
g4
g33
sg6
V\u000a
p202
sa(dp203
g4
g33
sg6
V\u000a
p204
sa(dp205
g4
g33
sg6
V\u000a
p206
sa(dp207
g4
g33
sg6
V\u000a
p208
sa(dp209
g4
g33
sg6
V\u000a
p210
sa(dp211
g4
g33
sg6
V\u000a
p212
sa(dp213
g4
g33
sg6
V\u000a
p214
sa(dp215
g4
g33
sg6
V\u000a
p216
sa(dp217
g4
g33
sg6
V\u000a
p218
sa(dp219
g4
g33
sg6
V\u000a
p220
sa(dp221
g4
g33
sg6
V\u000a
p222
sa(dp223
g4
g33
sg6
V\u000a
p224
sa(dp225
g4
g33
sg6
V\u000a
p226
sa(dp227
g4
g33
sg6
V\u000a
p228
sa(dp229
g4
g33
sg6
V\u000a
p230
sa(dp231
g4
g33
sg6
V\u000a
p232
sa(dp233
g4
g33
sg6
V\u000a
p234
sa(dp235
g4
g33
sg6
V\u000a
p236
sa(dp237
g4
g33
sg6
V\u000a
p238
sa(dp239
g4
g33
sg6
V\u000a
p240
sa(dp241
g4
g33
sg6
V\u000a
p242
sa(dp243
g4
g33
sg6
V\u000a
p244
sa(dp245
g4
g33
sg6
V\u000a
p246
sa(dp247
g4
g33
sg6
V\u000a
p248
sa(dp249
g4
g33
sg6
V\u000a
p250
sa(dp251
g4
g33
sg6
V\u000a
p252
sa(dp253
g4
g33
sg6
V\u000a
p254
sa(dp255
g4
g33
sg6
V\u000a
p256
sa(dp257
g4
g33
sg6
V\u000a
p258
sa(dp259
g4
g33
sg6
V\u000a
p260
sa(dp261
g4
g33
sg6
V\u000a
p262
sa(dp263
g4
g33
sg6
V\u000a
p264
sa(dp265
g4
g33
sg6
V\u000a
p266
sa(dp267
g4
g33
sg6
V\u000a
p268
sa(dp269
g4
g33
sg6
V\u000a
p270
sa(dp271
g4
g33
sg6
V\u000a
p272
sa(dp273
g4
g33
sg6
V\u000a
p274
sa(dp275
g4
g33
sg6
V\u000a
p276
sa(dp277
g4
g33
sg6
V\u000a
p278
sa(dp279
g4
g33
sg6
V\u000a
p280
sa(dp281
g4
g33
sg6
V\u000a
p282
sa(dp283
g4
g33
sg6
V\u000a
p284
sa(dp285
g4
g33
sg6
V\u000a
p286
sa(dp287
g4
g33
sg6
V\u000a
p288
sa(dp289
g4
g33
sg6
V\u000a
p290
sa(dp291
g4
g33
sg6
V\u000a
p292
sa(dp293
g4
g33
sg6
V\u000a
p294
sa(dp295
g4
g33
sg6
V\u000a
p296
sa(dp297
g4
g33
sg6
V\u000a
p298
sa(dp299
g4
g33
sg6
V\u000a
p300
sa(dp301
g4
g33
sg6
V\u000a
p302
sa(dp303
g4
g33
sg6
V\u000a
p304
sa(dp305
g4
g33
sg6
V\u000a
p306
sa(dp307
g4
g33
sg6
V\u000a
p308
sa(dp309
g4
g33
sg6
V\u000a
p310
sa(dp311
g4
g33
sg6
V\u000a
p312
sa(dp313
g4
g33
sg6
V\u000a
p314
sa(dp315
g4
g33
sg6
V\u000a
p316
sa(dp317
g4
g33
sg6
V\u000a
p318
sa(dp319
g4
g33
sg6
V\u000a
p320
sa(dp321
g4
g33
sg6
V\u000a
p322
sa(dp323
g4
g33
sg6
V\u000a
p324
sa(dp325
g4
g33
sg6
V\u000a
p326
sa(dp327
g4
g33
sg6
V\u000a
p328
sa(dp329
g4
g33
sg6
V\u000a
p330
sa(dp331
g4
g33
sg6
V\u000a
p332
sa(dp333
g4
g33
sg6
V\u000a
p334
sa(dp335
g4
g33
sg6
V\u000a
p336
sa(dp337
g4
g33
sg6
V\u000a
p338
sa(dp339
g4
g33
sg6
V\u000a
p340
sa(dp341
g4
g33
sg6
V\u000a
p342
sa(dp343
g4
g33
sg6
V\u000a
p344
sa(dp345
g4
g33
sg6
V\u000a
p346
sa(dp347
g4
g33
sg6
V\u000a
p348
sa(dp349
g4
g33
sg6
V\u000a
p350
sa(dp351
g4
g33
sg6
V\u000a
p352
sa(dp353
g4
g33
sg6
V\u000a
p354
sa(dp355
g4
g33
sg6
V\u000a
p356
sa(dp357
g4
g33
sg6
V\u000a
p358
sa(dp359
g4
g33
sg6
V\u000a
p360
sa(dp361
g4
g33
sg6
V\u000a
p362
sa(dp363
g4
g33
sg6
V\u000a
p364
sa(dp365
g4
g33
sg6
V\u000a
p366
sa(dp367
g4
g33
sg6
V\u000a
p368
sa(dp369
g4
g33
sg6
V\u000a
p370
sa(dp371
g4
g33
sg6
V\u000a
p372
sa(dp373
g4
g33
sg6
V\u000a
p374
sa(dp375
g4
g33
sg6
V\u000a
p376
sa(dp377
g4
g33
sg6
V\u000a
p378
sa(dp379
g4
g33
sg6
V\u000a
p380
sa(dp381
g4
g33
sg6
V\u000a
p382
sa(dp383
g4
g33
sg6
V\u000a
p384
sa(dp385
g4
g33
sg6
V\u000a
p386
sa(dp387
g4
g33
sg6
V\u000a
p388
sa(dp389
g4
g33
sg6
V\u000a
p390
sa(dp391
g4
g33
sg6
V\u000a
p392
sa(dp393
g4
g33
sg6
V\u000a
p394
sa(dp395
g4
g33
sg6
V\u000a
p396
sa(dp397
g4
g33
sg6
V\u000a
p398
sa(dp399
g4
g33
sg6
V\u000a
p400
sa(dp401
g4
g33
sg6
V\u000a
p402
sa(dp403
g4
g33
sg6
V\u000a
p404
sa(dp405
g4
g33
sg6
V\u000a
p406
sa(dp407
g4
g33
sg6
V\u000a
p408
sa(dp409
g4
g33
sg6
V\u000a
p410
sa(dp411
g4
g33
sg6
V\u000a
p412
sa(dp413
g4
g33
sg6
V\u000a
p414
sa(dp415
g4
g33
sg6
V\u000a
p416
sa(dp417
g4
g33
sg6
V\u000a
p418
sa(dp419
g4
g33
sg6
V\u000a
p420
sa(dp421
g4
g33
sg6
V\u000a
p422
sa(dp423
g4
g33
sg6
V\u000a
p424
sa(dp425
g4
g33
sg6
V\u000a
p426
sa(dp427
g4
g33
sg6
V\u000a
p428
sa(dp429
g4
g33
sg6
V\u000a
p430
sa(dp431
g4
g33
sg6
V\u000a
p432
sa(dp433
g4
g33
sg6
V\u000a
p434
sa(dp435
g4
g33
sg6
V\u000a
p436
sa(dp437
g4
g33
sg6
V\u000a
p438
sa(dp439
g4
g33
sg6
V\u000a
p440
sa(dp441
g4
g33
sg6
V\u000a
p442
sa(dp443
g4
g33
sg6
V\u000a
p444
sa(dp445
g4
g33
sg6
V\u000a
p446
sa(dp447
g4
g33
sg6
V\u000a
p448
sa(dp449
g4
g33
sg6
V\u000a
p450
sa(dp451
g4
g33
sg6
V\u000a
p452
sa(dp453
g4
g33
sg6
V\u000a
p454
sa(dp455
g4
g33
sg6
V\u000a
p456
sa(dp457
g4
g33
sg6
V\u000a
p458
sa(dp459
g4
g33
sg6
V\u000a
p460
sa(dp461
g4
g33
sg6
V\u000a
p462
sa(dp463
g4
g33
sg6
V\u000a
p464
sa(dp465
g4
g33
sg6
V\u000a
p466
sa(dp467
g4
g33
sg6
V\u000a
p468
sa(dp469
g4
g33
sg6
V\u000a
p470
sa(dp471
g4
g33
sg6
V\u000a
p472
sa(dp473
g4
g33
sg6
V\u000a
p474
sa(dp475
g4
g33
sg6
V\u000a
p476
sa(dp477
g4
g33
sg6
V\u000a
p478
sa(dp479
g4
g33
sg6
V\u000a
p480
sa(dp481
g4
g33
sg6
V\u000a
p482
sa(dp483
g4
g33
sg6
V\u000a
p484
sa(dp485
g4
g33
sg6
V\u000a
p486
sa(dp487
g4
g33
sg6
V\u000a
p488
sa(dp489
g4
g33
sg6
V\u000a
p490
sa(dp491
g4
g33
sg6
V\u000a
p492
sa(dp493
g4
g33
sg6
V\u000a
p494
sa(dp495
g4
g33
sg6
V\u000a
p496
sa(dp497
g4
g33
sg6
V\u000a
p498
sa(dp499
g4
g33
sg6
V\u000a
p500
sa(dp501
g4
g33
sg6
V\u000a
p502
sa(dp503
g4
g33
sg6
V\u000a
p504
sa(dp505
g4
g33
sg6
V\u000a
p506
sa(dp507
g4
g33
sg6
V\u000a
p508
sa(dp509
g4
g33
sg6
V\u000a
p510
sa(dp511
g4
g33
sg6
V\u000a
p512
sa(dp513
g4
g33
sg6
V\u000a
p514
sa(dp515
g4
g33
sg6
V\u000a
p516
sa(dp517
g4
g33
sg6
V\u000a
p518
sa(dp519
g4
g33
sg6
V\u000a
p520
sa(dp521
g4
g33
sg6
V\u000a
p522
sa(dp523
g4
g33
sg6
V\u000a
p524
sa(dp525
g4
g33
sg6
V\u000a
p526
sa(dp527
g4
g33
sg6
V\u000a
p528
sa(dp529
g4
g33
sg6
V\u000a
p530
sa(dp531
g4
g33
sg6
V\u000a
p532
sa(dp533
g4
g33
sg6
V\u000a
p534
sa(dp535
g4
g33
sg6
V\u000a
p536
sa(dp537
g4
g33
sg6
V\u000a
p538
sasV  
p539
(lp540
(dp541
g4
Vpt>
p542
sg6
g539
sa(dp543
g4
VJavascript allows the page in IE to resize to the minimum width
p544
sg6
V  
p545
sa(dp546
g4
Vipt>
p547
sg6
V  
p548
sa(dp549
g4
Var s_code=s.t();if(s_code)document.write(s_code)
p550
sg6
V  
p551
sa(dp552
g4
Vn show(id) {
p553
sg6
V  
p554
sa(dp555
g4
Vdocument.getElementById(id+'Outer').style
p556
sg6
V  
p557
sa(dp558
g4
Vdocument.getElementById(id+'Tab').style.b
p559
sg6
V  
p560
sa(dp561
g4
Vdocument.getElementById(id+'Anchor').styl
p562
sg6
V  
p563
sa(dp564
g4
V}
p565
sg6
V  
p566
sa(dp567
g4
Vn hide(id) {
p568
sg6
V  
p569
sa(dp570
g4
Vdocument.getElementById(id+'Outer').style
p571
sg6
V  
p572
sa(dp573
g4
Vdocument.getElementById(id+'Tab').style.b
p574
sg6
V  
p575
sa(dp576
g4
Vdocument.getElementById(id+'Anchor').styl
p577
sg6
V  
p578
sa(dp579
g4
g565
sg6
V  
p580
sa(dp581
g4
Vn isMouseLeaveOrEnter(e, handler)
p582
sg6
V  
p583
sa(dp584
g4
g33
sg6
V  
p585
sa(dp586
g4
Vif (e.type != 'mouseout' && e.type != 'mo
p587
sg6
V  
p588
sa(dp589
g4
Vvar reltg = e.relatedTarget ? e.relatedTa
p590
sg6
V  
p591
sa(dp592
g4
Ve.type == 'mouseout' ? e.toElement : e.fr
p593
sg6
V  
p594
sa(dp595
g4
Vwhile (reltg && reltg != handler) reltg =
p596
sg6
V  
p597
sa(dp598
g4
Vreturn (reltg != handler);
p599
sg6
V  
p600
sa(dp601
g4
g33
sg6
V  
p602
sa(dp603
g4
Vyle="display: none;">US Census Bureau</div><a href="/"><img src=
p604
sg6
V  
p605
sa(dp606
g4
Vyle="margin: 0pt; padding: 1px 0; list-style: none outside none;
p607
sg6
V  
p608
sa(dp609
g4
V<li style="float: left;"><a href="/" style="text-decorat
p610
sg6
V  
p611
sa(dp612
g4
V<li style="float: left;"><a href="/aboutus/social_media.
p613
sg6
V  
p614
sa(dp615
g4
V<li style="float: left;"><a href="/aboutus/" style="text
p616
sg6
V  
p617
sa(dp618
g4
V<li style="float: left;"><a href="/main/www/a2z" style="
p619
sg6
V  
p620
sa(dp621
g4
V<li style="float: left;"><a href="http://ask.census.gov/
p622
sg6
V  
p623
sa(dp624
g4
V<li style="float: left;"><a href="/main/www/help.html" s
p625
sg6
V  
p626
sa(dp627
g4
g33
sg6
V  
p628
sa(dp629
g4
V="CB_secondaryNav" style="margin:0 auto; width:1000px; z-index:9
p630
sg6
V  
p631
sa(dp632
g4
Vtyle="color: rgb(0, 51, 102); background-color: rgb(212, 233, 24
p633
sg6
V  
p634
sa(dp635
g4
Vul id="people-ul-first" style="float: left; margin: 0px; list-st
p636
sg6
V  
p637
sa(dp638
g4
V<li><a href="/population/age/" style="font-family: Arial,
p639
sg6
V  
p640
sa(dp641
g4
V<li><a href="/population/ancestry/" style="font-family: A
p642
sg6
V  
p643
sa(dp644
g4
V<li><a href="/did/www/births/" style="font-family: Arial,
p645
sg6
V  
p646
sa(dp647
g4
V<li><a href="/hhes/socdemo/children/" style="font-family:
p648
sg6
V  
p649
sa(dp650
g4
V<li><a href="/hhes/commuting/" style="font-family: Arial,
p651
sg6
V  
p652
sa(dp653
g4
V<li><a href="/hhes/computer/" style="font-family: Arial,H
p654
sg6
V  
p655
sa(dp656
g4
V<li><a href="/population/apportionment/" style="font-fami
p657
sg6
V  
p658
sa(dp659
g4
V<li><a href="/did/www/deaths/" style="font-family: Arial,
p660
sg6
V  
p661
sa(dp662
g4
V<li><a href="/people/disability/" style="font-family: Ari
p663
sg6
V  
p664
sa(dp665
g4
V<li><a href="/people/disabilityemptab/ " style="font-fami
p666
sg6
V  
p667
sa(dp668
g4
V<li><a href="/hhes/socdemo/education/" style="font-family
p669
sg6
V  
p670
sa(dp671
g4
V<li><a href="/people/eeotabulation/" style="font-family:
p672
sg6
V  
p673
sa(dp674
g4
V<li><a href="/hhes/families/" style="font-family: Arial,H
p675
sg6
V  
p676
sa(dp677
g4
V<li><a href="/hhes/fertility/" style="font-family: Arial,
p678
sg6
V  
p679
sa(dp680
g4
V/ul>
p681
sg6
V  
p682
sa(dp683
g4
Vul id="people-ul-second" style="float: left; margin: 0px; list-s
p684
sg6
V  
p685
sa(dp686
g4
V<li><a href="/population/foreign/" style="font-family: Ar
p687
sg6
V  
p688
sa(dp689
g4
V<li><a href="/genealogy/www/" style="font-family: Arial,H
p690
sg6
V  
p691
sa(dp692
g4
V<li><a href="/hhes/migration/" style="font-family: Arial,
p693
sg6
V  
p694
sa(dp695
g4
V<li><a href="/hhes/www/hlthins/" style="font-family: Aria
p696
sg6
V  
p697
sa(dp698
g4
V<li><a href="/population/hispanic/" style="font-family: A
p699
sg6
V  
p700
sa(dp701
g4
V<li><a href="/housing/" style="font-family: Arial,Helveti
p702
sg6
V  
p703
sa(dp704
g4
V<li><a href="/population/intmigration/" style="font-famil
p705
sg6
V  
p706
sa(dp707
g4
V<li><a href="/hhes/www/income/" style="font-family: Arial
p708
sg6
V  
p709
sa(dp710
g4
V<li><a href="/people/io/" style="font-family: Arial,Helve
p711
sg6
V  
p712
sa(dp713
g4
V<li><a href="/population/international/data/idb/informati
p714
sg6
V  
p715
sa(dp716
g4
V<li><a href="/population/international/" style="font-fami
p717
sg6
V  
p718
sa(dp719
g4
V<li><a href="/people/laborforce/" style="font-family: Ari
p720
sg6
V  
p721
sa(dp722
g4
V<li><a href="/hhes/socdemo/language/" style="font-family:
p723
sg6
V  
p724
sa(dp725
g4
V<li><a href="/hhes/socdemo/marriage/" style="font-family:
p726
sg6
V  
p727
sa(dp728
g4
V<li><a href="/population/metro/" style="font-family: Aria
p729
sg6
V  
p730
sa(dp731
g4
V/ul>
p732
sg6
V  
p733
sa(dp734
g4
Vul id="people-ul-third" style="float: left; margin: 0px; list-st
p735
sg6
V  
p736
sa(dp737
g4
V<li><a href="/hhes/migration/" style="font-family: Arial,
p738
sg6
V  
p739
sa(dp740
g4
V<li><a href="/popest/" style="font-family: Arial,Helvetic
p741
sg6
V  
p742
sa(dp743
g4
V<li><a href="/population/projections/" style="font-family
p744
sg6
V  
p745
sa(dp746
g4
V<li><a href="/hhes/www/poverty/" style="font-family: Aria
p747
sg6
V  
p748
sa(dp749
g4
V<li><a href="/population/race/" style="font-family: Arial
p750
sg6
V  
p751
sa(dp752
g4
V<li><a href="/rdo/" style="font-family: Arial,Helvetica,s
p753
sg6
V  
p754
sa(dp755
g4
V<li><a href="/hhes/samesex/" style="font-family: Arial,He
p756
sg6
V  
p757
sa(dp758
g4
V<li><a href="/did/www/schooldistricts/" style="font-famil
p759
sg6
V  
p760
sa(dp761
g4
V<li><a href="/hhes/school/" style="font-family: Arial,Hel
p762
sg6
V  
p763
sa(dp764
g4
V<li><a href="/did/www/sahie/" style="font-family: Arial,H
p765
sg6
V  
p766
sa(dp767
g4
V<li><a href="/did/www/saipe/" style="font-family: Arial,H
p768
sg6
V  
p769
sa(dp770
g4
V<li><a href="/hhes/veterans/" style="font-family: Arial,H
p771
sg6
V  
p772
sa(dp773
g4
V<li><a href="/hhes/www/socdemo/voting/" style="font-famil
p774
sg6
V  
p775
sa(dp776
g4
V<li><a href="/people/wealth/" style="font-family: Arial,H
p777
sg6
V  
p778
sa(dp779
g4
V<li><a href="/hhes/well-being/" style="font-family: Arial
p780
sg6
V  
p781
sa(dp782
g4
V/ul>
p783
sg6
V  
p784
sa(dp785
g4
Vul id="people-ul-fourth" style="height: 300px; border-left: 1px
p786
sg6
V  
p787
sa(dp788
g4
V<li style="font-family: Arial,Helvetica,sans-serif; font-
p789
sg6
V  
p790
sa(dp791
g4
V<li><a href="/acs/www/" style="font-family: Arial,Helveti
p792
sg6
V  
p793
sa(dp794
g4
V<li><a href="/2010census/" style="font-family: Arial,Helv
p795
sg6
V  
p796
sa(dp797
g4
V<li><a href="/main/www/cen2000.html" style="font-family:
p798
sg6
V  
p799
sa(dp800
g4
V<li><a href="/popest/estimates.html" style="font-family:
p801
sg6
V  
p802
sa(dp803
g4
V/ul>
p804
sg6
V  
p805
sa(dp806
g4
Vdiv style="clear: both;"></div>
p807
sg6
V  
p808
sa(dp809
g4
V<!--END People Menu Inner-->
p810
sg6
V  
p811
sa(dp812
g4
Vtyle="color: rgb(0, 51, 102); background-color: rgb(212, 233, 24
p813
sg6
V  
p814
sa(dp815
g4
Vul id="business-menu-first" style="float: left; margin: 0px; lis
p816
sg6
V  
p817
sa(dp818
g4
V<li style="font-family: Arial,Helvetica,sans-serif; font-
p819
sg6
V  
p820
sa(dp821
g4
V<li><a href="http://bhs.econ.census.gov/bhs/" style="font
p822
sg6
V  
p823
sa(dp824
g4
V<li><a href="/econ/industry/" style="font-family: Arial,H
p825
sg6
V  
p826
sa(dp827
g4
V<li><a href="/econ/geography.html" style="font-family: Ar
p828
sg6
V  
p829
sa(dp830
g4
V<li><a href="/econ/survey.html" style="font-family: Arial
p831
sg6
V  
p832
sa(dp833
g4
V<li><a href="http://factfinder2.census.gov/" style="font-
p834
sg6
V  
p835
sa(dp836
g4
V<li><a href="/econ/census/snapshots/index.html" style="fo
p837
sg6
V  
p838
sa(dp839
g4
V<li><a href="/econ/currentdata/" style="font-family: Aria
p840
sg6
V  
p841
sa(dp842
g4
V/ul>
p843
sg6
V  
p844
sa(dp845
g4
Vul id="business-menu-second" style="float: left; margin: 0px; li
p846
sg6
V  
p847
sa(dp848
g4
V<li style="font-family: Arial,Helvetica,sans-serif; font-
p849
sg6
V  
p850
sa(dp851
g4
V<li><a href="/econ/economywide.html" style="font-family:
p852
sg6
V  
p853
sa(dp854
g4
V<li><a href="/econ/construction.html" style="font-family:
p855
sg6
V  
p856
sa(dp857
g4
V<li><a href="/govs/" style="font-family: Arial,Helvetica,
p858
sg6
V  
p859
sa(dp860
g4
V<li><a href="/econ/manufacturing.html" style="font-family
p861
sg6
V  
p862
sa(dp863
g4
V<li><a href="/econ/retail.html" style="font-family: Arial
p864
sg6
V  
p865
sa(dp866
g4
V<li><a href="/econ/services.html" style="font-family: Ari
p867
sg6
V  
p868
sa(dp869
g4
V<li><a href="/econ/wholesale.html" style="font-family: Ar
p870
sg6
V  
p871
sa(dp872
g4
V<li><a href="/econ/other.html" style="font-family: Arial,
p873
sg6
V  
p874
sa(dp875
g4
V/ul>
p876
sg6
V  
p877
sa(dp878
g4
Vul id="business-menu-third" style="float: left; margin: 0px; lis
p879
sg6
V  
p880
sa(dp881
g4
V<li style="font-family: Arial,Helvetica,sans-serif; font-
p882
sg6
V  
p883
sa(dp884
g4
V<li><a href="/econ/bes/" style="font-family: Arial,Helvet
p885
sg6
V  
p886
sa(dp887
g4
V<li><a href="/econ/concentration.html" style="font-family
p888
sg6
V  
p889
sa(dp890
g4
V<li><a href="/econ/estats/" style="font-family: Arial,Hel
p891
sg6
V  
p892
sa(dp893
g4
V<li><a href="/foreign-trade/schedules/b/" style="font-fam
p894
sg6
V  
p895
sa(dp896
g4
V<li><a href="/ces/" style="font-family: Arial,Helvetica,s
p897
sg6
V  
p898
sa(dp899
g4
V<li><a href="/eos/www/naics/" style="font-family: Arial,H
p900
sg6
V  
p901
sa(dp902
g4
V/<a href="/eos/www/napcs/" style="font-family: Arial,Helv
p903
sg6
V  
p904
sa(dp905
g4
V<li><a href="/econ/smallbus.html" style="font-family: Ari
p906
sg6
V  
p907
sa(dp908
g4
V<li><a href="/econ/esp/" style="font-family: Arial,Helvet
p909
sg6
V  
p910
sa(dp911
g4
V<li><a href="/econ/sbo" style="font-family: Arial,Helveti
p912
sg6
V  
p913
sa(dp914
g4
V/ul>
p915
sg6
V  
p916
sa(dp917
g4
Vul id="business-menu-fourth" style="float: left; margin: 0px; li
p918
sg6
V  
p919
sa(dp920
g4
V<li style="font-family: Arial,Helvetica,sans-serif; font-
p921
sg6
V  
p922
sa(dp923
g4
V<li><a href="/econ/census07/" style="font-family: Arial,H
p924
sg6
V  
p925
sa(dp926
g4
V<li><a href="/econ/cbp/" style="font-family: Arial,Helvet
p927
sg6
V  
p928
sa(dp929
g4
V<li><a href="/cgi-bin/briefroom/BriefRm" style="font-fami
p930
sg6
V  
p931
sa(dp932
g4
V<li><a href="/ces/" style="font-family: Arial,Helvetica,s
p933
sg6
V  
p934
sa(dp935
g4
V<li><a href="/foreign-trade/" style="font-family: Arial,H
p936
sg6
V  
p937
sa(dp938
g4
V<li><a href="http://lehd.ces.census.gov/led/" style="font
p939
sg6
V  
p940
sa(dp941
g4
V/ul>
p942
sg6
V  
p943
sa(dp944
g4
Vdiv style="clear: both;"></div>
p945
sg6
V  
p946
sa(dp947
g4
V<!--END Business Menu Inner-->
p948
sg6
V  
p949
sa(dp950
g4
Vtyle="color: rgb(0, 51, 102); background-color: rgb(212, 233, 24
p951
sg6
V  
p952
sa(dp953
g4
Vul style="margin: 0pt; padding: 0pt 10px 0pt 0pt; list-style: no
p954
sg6
V  
p955
sa(dp956
g4
V<li><a href="/geo/education/" style="font-family: Arial,H
p957
sg6
V  
p958
sa(dp959
g4
V<li><a href="/geo/maps-data/data/gazetteer.html" style="f
p960
sg6
V  
p961
sa(dp962
g4
V<li><a href="/geo/partnerships/" style="font-family: Aria
p963
sg6
V  
p964
sa(dp965
g4
V<li><a href="/geo/www/gss/" style="font-family: Arial,Hel
p966
sg6
V  
p967
sa(dp968
g4
V<li><a href="/geo/reference/geoguide.html" style="font-fa
p969
sg6
V  
p970
sa(dp971
g4
V<li><a href="/geo/maps-data/" style="font-family: Arial,H
p972
sg6
V  
p973
sa(dp974
g4
V<li><a href="/population/metro/" style="font-family: Aria
p975
sg6
V  
p976
sa(dp977
g4
V<li><a href="/geo/reference/" style="font-family: Arial,H
p978
sg6
V  
p979
sa(dp980
g4
V<li><a href="/geo/reference/terms.html" style="font-famil
p981
sg6
V  
p982
sa(dp983
g4
V<li><a href="/geo/maps-data/data/tiger.html" style="font-
p984
sg6
V  
p985
sa(dp986
g4
V<li><a href="/geo/reference/zctas.html " style="font-fami
p987
sg6
V  
p988
sa(dp989
g4
V/ul>
p990
sg6
V  
p991
sa(dp992
g4
V<!--END Geography Menu Inner -->
p993
sg6
V  
p994
sa(dp995
g4
Vtyle="color: rgb(0, 51, 102); background-color: rgb(212, 233, 24
p996
sg6
V  
p997
sa(dp998
g4
Vul style="margin: 0pt; padding: 0pt 10px 0pt 0pt; list-style: no
p999
sg6
V  
p1000
sa(dp1001
g4
V<li><a href="http://quickfacts.census.gov/" style="font-f
p1002
sg6
V  
p1003
sa(dp1004
g4
V<li><a href="http://factfinder2.census.gov/" style="font-
p1005
sg6
V  
p1006
sa(dp1007
g4
V<li><a href="/easystats/" style="font-family: Arial,Helve
p1008
sg6
V  
p1009
sa(dp1010
g4
V<li><a href="/popfinder/" style="font-family: Arial,Helve
p1011
sg6
V  
p1012
sa(dp1013
g4
V<li><a href="/acs/www/" style="font-family: Arial,Helveti
p1014
sg6
V  
p1015
sa(dp1016
g4
V<li><a href="/2010census/" style="font-family: Arial,Helv
p1017
sg6
V  
p1018
sa(dp1019
g4
V<li><a href="/econ/census07/" style="font-family: Arial,H
p1020
sg6
V  
p1021
sa(dp1022
g4
V<li><a href="/2010census/popmap/" style="font-family: Ari
p1023
sg6
V  
p1024
sa(dp1025
g4
V<li><a href="/dataviz/" style="font-family: Arial,Helveti
p1026
sg6
V  
p1027
sa(dp1028
g4
V<li><a href="/mso/www/training/" style="font-family: Aria
p1029
sg6
V  
p1030
sa(dp1031
g4
V<li><a href="/main/www/access.html" style="font-family: A
p1032
sg6
V  
p1033
sa(dp1034
g4
V<li><a href="/mp/www/cat/" style="font-family: Arial,Helv
p1035
sg6
V  
p1036
sa(dp1037
g4
V<li><a href="/prod/www/" style="font-family: Arial,Helvet
p1038
sg6
V  
p1039
sa(dp1040
g4
V/ul>
p1041
sg6
V  
p1042
sa(dp1043
g4
V<!-- End Data Menu Inner-->
p1044
sg6
V  
p1045
sa(dp1046
g4
Vtyle="color: rgb(0, 51, 102); background-color: rgb(212, 233, 24
p1047
sg6
V  
p1048
sa(dp1049
g4
Vul style="margin: 0pt; padding: 0pt 10px 0pt 0pt;   list-style:
p1050
sg6
V  
p1051
sa(dp1052
g4
V<li><a href="/research/working_papers/" style="font-famil
p1053
sg6
V  
p1054
sa(dp1055
g4
V<li><a href="/research/seminars/" style="font-family: Ari
p1056
sg6
V  
p1057
sa(dp1058
g4
V<li><a href="/research/conferences/" style="font-family:
p1059
sg6
V  
p1060
sa(dp1061
g4
V<li><a href="/research/data/" style="font-family: Arial,H
p1062
sg6
V  
p1063
sa(dp1064
g4
V<li><a href="/research/opportunities/" style="font-family
p1065
sg6
V  
p1066
sa(dp1067
g4
V/ul>
p1068
sg6
V  
p1069
sa(dp1070
g4
V<!-- End Research Menu Inner-->
p1071
sg6
V  
p1072
sa(dp1073
g4
Vtyle="color: rgb(0, 51, 102); background-color: rgb(212, 233, 24
p1074
sg6
V  
p1075
sa(dp1076
g4
Vul style="margin: 0pt; padding: 0pt 10px 0pt 0pt; list-style: no
p1077
sg6
V  
p1078
sa(dp1079
g4
V<li><a href="/newsroom/releases/" style="font-family: Ari
p1080
sg6
V  
p1081
sa(dp1082
g4
V<li><a href="/newsroom/releases/archives/tip_sheets/" sty
p1083
sg6
V  
p1084
sa(dp1085
g4
V<li><a href="/newsroom/releases/archives/facts_for_featur
p1086
sg6
V  
p1087
sa(dp1088
g4
V<li><a href="/multimedia/" style="font-family: Arial,Helv
p1089
sg6
V  
p1090
sa(dp1091
g4
V<li><a href="http://directorsblog.blogs.census.gov/ " sty
p1092
sg6
V  
p1093
sa(dp1094
g4
V<li><a href="/aboutus/social_media.html" style="font-fami
p1095
sg6
V  
p1096
sa(dp1097
g4
V<li><a href="/newsroom/contact_us.html" title="newsroom c
p1098
sg6
V  
p1099
sa(dp1100
g4
V/ul>
p1101
sg6
V  
p1102
sa(dp1103
g4
V<!-- End Newsroom Menu Inner-->
p1104
sg6
V  
p1105
sa(dp1106
g4
Vd="search_form" method="get" action="http://search.census.gov/se
p1107
sg6
V  
p1108
sa(dp1109
g4
Vid="CB_search" style="float: left; margin: 0;">
p1110
sg6
V  
p1111
sa(dp1112
g4
Vdiv style="display: inline-block;"><input name="utf8" type="hidd
p1113
sg6
V  
p1114
sa(dp1115
g4
V<input id="affiliate" name="affiliate" type="hidden" value="c
p1116
sg6
V  
p1117
sa(dp1118
g4
V<label for="query" style="left: -9999px; position: absolute;
p1119
sg6
V  
p1120
sa(dp1121
g4
V<input id="query" name="query" type="text" class="usagov-sear
p1122
sg6
V  
p1123
sa(dp1124
g4
Vonfocus="this.value='';" value="Search" maxlength="256" alt="
p1125
sg6
V  
p1126
sa(dp1127
g4
Vstyle="background-image: url(/main/img/home/icon_search.gif);
p1128
sg6
V  
p1129
sa(dp1130
g4
V/div>
p1131
sg6
V  
p1132
sa(dp1133
g4
V> <!-- Close id CB_search -->
p1134
sg6
V  
p1135
sa(dp1136
g4
Vstyle="float: left; padding: 1px 0 0 3px" >
p1137
sg6
V  
p1138
sa(dp1139
g4
Vinput id="commit" class="searchbtn" alt="Go" src="/main/img/home
p1140
sg6
V  
p1141
sa(dp1142
g4
V>
p1143
sg6
V  
p1144
sa(dp1145
g4
g33
sg6
V  
p1146
sa(dp1147
g4
VeName="" ;
p1148
sg6
V  
p1149
sa(dp1150
g4
VeType="errorPage" ;
p1151
sg6
V  
p1152
sa(dp1153
g4
Vludes end here-->
p1154
sg6
V  
p1155
sa(dp1156
g4
V="outer-column-container">
p1157
sg6
V  
p1158
sa(dp1159
g4
Vid="inner-column-container">
p1160
sg6
V  
p1161
sa(dp1162
g4
Vv id="source-order-container">
p1163
sg6
V  
p1164
sa(dp1165
g4
Vdiv id="left-column">
p1166
sg6
V  
p1167
sa(dp1168
g4
V<div class="inside">
p1169
sg6
V  
p1170
sa(dp1171
g4
V<!--do not delete even though no content-->
p1172
sg6
V  
p1173
sa(dp1174
g4
V</div>
p1175
sg6
V  
p1176
sa(dp1177
g4
V</div>
p1178
sg6
V  
p1179
sa(dp1180
g4
V!--Close left column-->
p1181
sg6
V  
p1182
sa(dp1183
g4
V!--Middle Column-->
p1184
sg6
V  
p1185
sa(dp1186
g4
Vdiv id="middle-column">
p1187
sg6
V  
p1188
sa(dp1189
g4
V<div class="inside">
p1190
sg6
V  
p1191
sa(dp1192
g4
V<!-- start middle-->
p1193
sg6
V  
p1194
sa(dp1195
g4
Va href="/2010census/">The 2010 Census</a></li>
p1196
sg6
V  
p1197
sa(dp1198
g4
Va href="http://factfinder2.census.gov/">American FactFinder</a><
p1199
sg6
V  
p1200
sa(dp1201
g4
Va href="http://bhs.econ.census.gov/bhs/">Business Help Site</a><
p1202
sg6
V  
p1203
sa(dp1204
g4
Va href="/main/www/srchtool.html">Search</a></li>
p1205
sg6
V  
p1206
sa(dp1207
g4
Va href="http://quickfacts.census.gov/qfd/">State and County Quic
p1208
sg6
V  
p1209
sa(dp1210
g4
Va href="/main/www/a2z/">Subjects A-Z</a></li>
p1211
sg6
V  
p1212
sa(dp1213
g4
Va href="/popclock/">U.S. and World Population Clock</a></li>
p1214
sg6
V  
p1215
sa(dp1216
g4
V<!--End middle content-->
p1217
sg6
V  
p1218
sa(dp1219
g4
V<div class="clear-columns">
p1220
sg6
V  
p1221
sa(dp1222
g4
V<!-- do not delete -->
p1223
sg6
V  
p1224
sa(dp1225
g4
V</div>
p1226
sg6
V  
p1227
sa(dp1228
g4
V</div>
p1229
sg6
V  
p1230
sa(dp1231
g4
V<!-- Close inside -->
p1232
sg6
V  
p1233
sa(dp1234
g4
V/div>
p1235
sg6
V  
p1236
sa(dp1237
g4
V!-- Close middle-column -->
p1238
sg6
V  
p1239
sa(dp1240
g4
V!-- End Middle Column-->
p1241
sg6
V  
p1242
sa(dp1243
g4
Viv>
p1244
sg6
V  
p1245
sa(dp1246
g4
V- Close source-order-container -->
p1247
sg6
V  
p1248
sa(dp1249
g4
Vv id="right-column">
p1250
sg6
V  
p1251
sa(dp1252
g4
Vdiv class="inside">
p1253
sg6
V  
p1254
sa(dp1255
g4
V<!--do not delete even though no content-->
p1256
sg6
V  
p1257
sa(dp1258
g4
V/div>
p1259
sg6
V  
p1260
sa(dp1261
g4
Viv>
p1262
sg6
V  
p1263
sa(dp1264
g4
V- close inside -->
p1265
sg6
V  
p1266
sa(dp1267
g4
V-Close right column-->
p1268
sg6
V  
p1269
sa(dp1270
g4
g1143
sg6
V  
p1271
sa(dp1272
g4
Vclass="clear-columns">
p1273
sg6
V  
p1274
sa(dp1275
g4
V- do not delete -->
p1276
sg6
V  
p1277
sa(dp1278
g4
g1143
sg6
V  
p1279
sa(dp1280
g4
g33
sg6
V  
p1281
sa(dp1282
g4
Vef="#SKIP_FTR" title="Skip Footer" class="skiplink ui-state-high
p1283
sg6
V  
p1284
sa(dp1285
g4
Vid="footer-inner" style="width: 1000px; margin: 0pt auto;">
p1286
sg6
V  
p1287
sa(dp1288
g4
Vdiv id="footer-content">
p1289
sg6
V  
p1290
sa(dp1291
g4
V<div id="footer-tagline" style="font-family: Times,Times New
p1292
sg6
V  
p1293
sa(dp1294
g4
V<div id="footer_grad_1" style="height: 1px; background-image:
p1295
sg6
V  
p1296
sa(dp1297
g4
V="column_1" style="width: 155px; padding-left:25px; float: left;
p1298
sg6
V  
p1299
sa(dp1300
g4
Vtyle="margin: 0px; padding: 0px; list-style: none outside none;"
p1301
sg6
V  
p1302
sa(dp1303
g4
Vli><a href="/aboutus/" style="font-size: 8pt; line-height: 14pt;
p1304
sg6
V  
p1305
sa(dp1306
g4
Vli><a href="/survey_participants/" style="font-size: 8pt; line-h
p1307
sg6
V  
p1308
sa(dp1309
g4
Vli><a href="http://ask.census.gov/" style="font-size: 8pt; line-
p1310
sg6
V  
p1311
sa(dp1312
g4
Vli><a href="/newsroom/releases/archives/directors_corner/" style
p1313
sg6
V  
p1314
sa(dp1315
g4
Vli><a href="/regions/" style="font-size: 8pt; line-height: 14pt;
p1316
sg6
V  
p1317
sa(dp1318
g4
Vli><a href="/history/" style="font-size: 8pt; line-height: 14pt;
p1319
sg6
V  
p1320
sa(dp1321
g4
Vli><a href="/research/" style="font-size: 8pt; line-height: 14pt
p1322
sg6
V  
p1323
sa(dp1324
g4
Vli><a href="/aboutus/scientific_integrity.html" style="font-size
p1325
sg6
V  
p1326
sa(dp1327
g4
Vli><a href="/hrd/www/" style="font-size: 8pt; line-height: 14pt;
p1328
sg6
V  
p1329
sa(dp1330
g4
Vli><a href="/diversity_networks/" style="font-size: 8pt; line-he
p1331
sg6
V  
p1332
sa(dp1333
g4
Vli><a href="/procur/www/" style="font-size: 8pt; line-height: 14
p1334
sg6
V  
p1335
sa(dp1336
g4
Vli><a href="/aboutus/contacts.html" title="contact information f
p1337
sg6
V  
p1338
sa(dp1339
g4
g33
sg6
V  
p1340
sa(dp1341
g4
V<!--end column_1-->
p1342
sg6
V  
p1343
sa(dp1344
g4
V="column_2" style="width: 165px; float: left; text-align: left;"
p1345
sg6
V  
p1346
sa(dp1347
g4
Vtyle="margin: 0px; padding: 0px; list-style: none outside none;"
p1348
sg6
V  
p1349
sa(dp1350
g4
Vli><a href="/main/www/access.html" style="font-size: 8pt; line-h
p1351
sg6
V  
p1352
sa(dp1353
g4
Vli><a href="http://quickfacts.census.gov/" style="font-size: 8pt
p1354
sg6
V  
p1355
sa(dp1356
g4
Vli><a href="http://factfinder2.census.gov/" style="font-size: 8p
p1357
sg6
V  
p1358
sa(dp1359
g4
Vli><a href="/easystats/" style="font-size: 8pt; line-height: 14p
p1360
sg6
V  
p1361
sa(dp1362
g4
Vli><a href="/popfinder/" style="font-size: 8pt; line-height: 14p
p1363
sg6
V  
p1364
sa(dp1365
g4
Vli><a href="/2010census/" style="font-size: 8pt; line-height: 14
p1366
sg6
V  
p1367
sa(dp1368
g4
Vli><a href="/econ/census07/" style="font-size: 8pt; line-height:
p1369
sg6
V  
p1370
sa(dp1371
g4
Vli><a href="/2010census/popmap/" style="font-size: 8pt; line-hei
p1372
sg6
V  
p1373
sa(dp1374
g4
Vli><a href="/mso/www/training/" style="font-size: 8pt; line-heig
p1375
sg6
V  
p1376
sa(dp1377
g4
Vli><a href="/main/www/access.html" style="font-size: 8pt; line-h
p1378
sg6
V  
p1379
sa(dp1380
g4
Vli><a href="/developers/" style="font-size: 8pt; line-height: 14
p1381
sg6
V  
p1382
sa(dp1383
g4
Vli><a href="/mp/www/cat/" style="font-size: 8pt; line-height: 14
p1384
sg6
V  
p1385
sa(dp1386
g4
Vli><a href="/prod/www/" style="font-size: 8pt; line-height: 14pt
p1387
sg6
V  
p1388
sa(dp1389
g4
g33
sg6
V  
p1390
sa(dp1391
g4
V<!--end column_2-->
p1392
sg6
V  
p1393
sa(dp1394
g4
V="column_3" style="width: 168px; float: left; text-align: left;"
p1395
sg6
V  
p1396
sa(dp1397
g4
Vtyle="margin: 0px; padding: 0px; list-style: none outside none;"
p1398
sg6
V  
p1399
sa(dp1400
g4
Vli><a href="/econ/" style="font-size: 8pt; line-height: 14pt; co
p1401
sg6
V  
p1402
sa(dp1403
g4
Vli><a href="http://bhs.econ.census.gov/bhs/" style="font-size: 8
p1404
sg6
V  
p1405
sa(dp1406
g4
Vli><a href="/cgi-bin/briefroom/BriefRm" style="font-size: 8pt; l
p1407
sg6
V  
p1408
sa(dp1409
g4
Vli><a href="/econ/census07/" style="font-size: 8pt; line-height:
p1410
sg6
V  
p1411
sa(dp1412
g4
Vli><a href="/econ/estats/" style="font-size: 8pt; line-height: 1
p1413
sg6
V  
p1414
sa(dp1415
g4
Vli><a href="/foreign-trade/" style="font-size: 8pt; line-height:
p1416
sg6
V  
p1417
sa(dp1418
g4
Vli><a href="/foreign-trade/schedules/b/" style="font-size: 8pt;
p1419
sg6
V  
p1420
sa(dp1421
g4
Vli><a href="/eos/www/naics/" style="font-size: 8pt; line-height:
p1422
sg6
V  
p1423
sa(dp1424
g4
Vli><a href="/govs/" style="font-size: 8pt; line-height: 14pt; co
p1425
sg6
V  
p1426
sa(dp1427
g4
Vli><a href="http://lehd.ces.census.gov/led/" style="font-size: 8
p1428
sg6
V  
p1429
sa(dp1430
g4
Vli><a href="/econ/sbo/" style="font-size: 8pt; line-height: 14pt
p1431
sg6
V  
p1432
sa(dp1433
g4
g33
sg6
V  
p1434
sa(dp1435
g4
V!--end column_3-->
p1436
sg6
V  
p1437
sa(dp1438
g4
V="column_4" style="width: 170px; float: left; text-align: left;"
p1439
sg6
V  
p1440
sa(dp1441
g4
Vtyle="margin: 0 0 1em 0; padding: 0px; list-style: none outside
p1442
sg6
V  
p1443
sa(dp1444
g4
Vli><a href="/people/" style="font-size: 8pt; line-height: 14pt;
p1445
sg6
V  
p1446
sa(dp1447
g4
Vli><a href="/2010census/" style="font-size: 8pt; line-height: 14
p1448
sg6
V  
p1449
sa(dp1450
g4
Vli><a href="/main/www/cen2000.html" style="font-size: 8pt; line-
p1451
sg6
V  
p1452
sa(dp1453
g4
Vli><a href="/acs/www/" style="font-size: 8pt; line-height: 14pt;
p1454
sg6
V  
p1455
sa(dp1456
g4
Vli><a href="/hhes/www/income/" style="font-size: 8pt; line-heigh
p1457
sg6
V  
p1458
sa(dp1459
g4
Vli><a href="/hhes/www/poverty/" style="font-size: 8pt; line-heig
p1460
sg6
V  
p1461
sa(dp1462
g4
Vli><a href="/popest/" style="font-size: 8pt; line-height: 14pt;
p1463
sg6
V  
p1464
sa(dp1465
g4
Vli><a href="/population/projections/" style="font-size: 8pt; lin
p1466
sg6
V  
p1467
sa(dp1468
g4
Vli><a href="/hhes/www/hlthins/" style="font-size: 8pt; line-heig
p1469
sg6
V  
p1470
sa(dp1471
g4
Vli><a href="/housing/" style="font-size: 8pt; line-height: 14pt;
p1472
sg6
V  
p1473
sa(dp1474
g4
Vli><a href="/population/international/" style="font-size: 8pt; l
p1475
sg6
V  
p1476
sa(dp1477
g4
Vli><a href="/genealogy/www/" style="font-size: 8pt; line-height:
p1478
sg6
V  
p1479
sa(dp1480
g4
g33
sg6
V  
p1481
sa(dp1482
g4
V!--end column_4-->
p1483
sg6
V  
p1484
sa(dp1485
g4
V="column_5" style="width: 166px; float: left; text-align: left;"
p1486
sg6
V  
p1487
sa(dp1488
g4
Vtyle="margin: 0px; padding: 0px; list-style: none outside none;"
p1489
sg6
V  
p1490
sa(dp1491
g4
Vli><a href="/geo/" style="font-size: 8pt; line-height: 14pt; col
p1492
sg6
V  
p1493
sa(dp1494
g4
Vli><a href="/geo/maps-data/" style="font-size: 8pt; line-height:
p1495
sg6
V  
p1496
sa(dp1497
g4
Vli><a href="/geo/maps-data/data/tiger.html" style="font-size: 8p
p1498
sg6
V  
p1499
sa(dp1500
g4
Vli><a href="/geo/maps-data/data/gazetteer.html" style="font-size
p1501
sg6
V  
p1502
sa(dp1503
g4
g33
sg6
V  
p1504
sa(dp1505
g4
Vtyle="margin: .5em 0 .5em; padding: 0pt; list-style: none outsid
p1506
sg6
V  
p1507
sa(dp1508
g4
Vli style="font-size: 8pt; line-height: 14pt; color: rgb(255, 255
p1509
sg6
V  
p1510
sa(dp1511
g4
Vli><a href="/schools/" style="font-size: 8pt; line-height: 14pt;
p1512
sg6
V  
p1513
sa(dp1514
g4
Vli><a href="/aian/" style="font-size: 8pt; line-height: 14pt; co
p1515
sg6
V  
p1516
sa(dp1517
g4
Vli><a href="/newsroom/emergencies/" style="font-size: 8pt; line-
p1518
sg6
V  
p1519
sa(dp1520
g4
Vli><a href="/compendia/statab/" style="font-size: 8pt; line-heig
p1521
sg6
V  
p1522
sa(dp1523
g4
Vli><a href="/regions/specialcensus/" style="font-size: 8pt; line
p1524
sg6
V  
p1525
sa(dp1526
g4
Vli><a href="/survey_participants/related_information/phishing_em
p1527
sg6
V  
p1528
sa(dp1529
g4
Vli><a href="/recovery/" style="font-size: 8pt; line-height: 14pt
p1530
sg6
V  
p1531
sa(dp1532
g4
Vli><a href="http://www.usa.gov/" style="font-size: 8pt; line-hei
p1533
sg6
V  
p1534
sa(dp1535
g4
Vli><a href="http://business.usa.gov/" style="font-size: 8pt; lin
p1536
sg6
V  
p1537
sa(dp1538
g4
g33
sg6
V  
p1539
sa(dp1540
g4
V!--end column_5-->
p1541
sg6
V  
p1542
sa(dp1543
g4
V="column_6" style="float: right; text-align: left; width: 142px;
p1544
sg6
V  
p1545
sa(dp1546
g4
Vtyle="margin: 0px; padding: 0px; list-style: none outside none;"
p1547
sg6
V  
p1548
sa(dp1549
g4
Vli><a href="/newsroom/" style="font-size: 8pt; line-height: 14pt
p1550
sg6
V  
p1551
sa(dp1552
g4
Vli><a href="/newsroom/releases/" style="font-size: 8pt; line-hei
p1553
sg6
V  
p1554
sa(dp1555
g4
Vli><a href="http://www.calendarwiz.com/calendars/calendar.php?cr
p1556
sg6
V  
p1557
sa(dp1558
g4
Vli><a href="/newsroom/releases/archives/facts_for_features_speci
p1559
sg6
V  
p1560
sa(dp1561
g4
Vli><a href="/aboutus/social_media.html" style="font-size: 8pt; l
p1562
sg6
V  
p1563
sa(dp1564
g4
Vli><a href="/multimedia/" style="font-size: 8pt; line-height: 14
p1565
sg6
V  
p1566
sa(dp1567
g4
g33
sg6
V  
p1568
sa(dp1569
g4
Vtyle="margin: 2px 0 9px 0; padding: 0pt; list-style: none outsid
p1570
sg6
V  
p1571
sa(dp1572
g4
Vli><a href="/aboutus/social_media.html" style="font-size: 8pt; l
p1573
sg6
V  
p1574
sa(dp1575
g4
Vli style="font-size: 8pt; line-height: 15pt; color: rgb(255, 255
p1576
sg6
V  
p1577
sa(dp1578
g4
Vli style="font-size: 8pt; line-height: 15pt; color: rgb(255, 255
p1579
sg6
V  
p1580
sa(dp1581
g4
Vli style="font-size: 8pt; line-height: 15pt; color: rgb(255, 255
p1582
sg6
V  
p1583
sa(dp1584
g4
Vli style="font-size: 8pt; line-height: 15pt; color: rgb(255, 255
p1585
sg6
V  
p1586
sa(dp1587
g4
Vli style="font-size: 8pt; line-height: 15pt; color: rgb(255, 255
p1588
sg6
V  
p1589
sa(dp1590
g4
g33
sg6
V  
p1591
sa(dp1592
g4
V!--end column_6-->
p1593
sg6
V  
p1594
sa(dp1595
g4
V="footer_grad_2" style="clear: both; height: 1px; background-ima
p1596
sg6
V  
p1597
sa(dp1598
g4
V="horizontal_nav">
p1599
sg6
V  
p1600
sa(dp1601
g4
Vtyle="list-style: none none outside; display: block; margin: 15p
p1602
sg6
V  
p1603
sa(dp1604
g4
Vli style="font-size: 7pt; display: inline; padding: 0pt 15px;"><
p1605
sg6
V  
p1606
sa(dp1607
g4
Vli style="font-size: 7pt; display: inline; padding: 0pt 15px; bo
p1608
sg6
V  
p1609
sa(dp1610
g4
Vli style="font-size: 7pt; display: inline; padding: 0pt 15px; bo
p1611
sg6
V  
p1612
sa(dp1613
g4
Vli style="font-size: 7pt; display: inline; padding: 0pt 15px; bo
p1614
sg6
V  
p1615
sa(dp1616
g4
Vli style="font-size: 7pt; display: inline; padding: 0pt 15px; bo
p1617
sg6
V  
p1618
sa(dp1619
g4
g33
sg6
V  
p1620
sa(dp1621
g4
g33
sg6
V  
p1622
sa(dp1623
g4
Ve="text-align: center; font-size: 8pt; line-height: 14pt;"><a hr
p1624
sg6
V  
p1625
sa(dp1626
g4
Vgov_sayt_url = "http://search.usa.gov/sayt?aid=2484&";
p1627
sg6
V  
p1628
sa(dp1629
g4
Vipt = document.createElement('script');
p1630
sg6
V  
p1631
sa(dp1632
g4
Vtype = "text/javascript";
p1633
sg6
V  
p1634
sa(dp1635
g4
Vsrc = "http://search.usa.gov/javascripts/sayt/remote.js";
p1636
sg6
V  
p1637
sa(dp1638
g4
Vt.getElementsByTagName("head")[0].appendChild(script);
p1639
sg6
V  
p1640
sa(dp1641
g4
VATA[
p1642
sg6
V  
p1643
sa(dp1644
g4
Vid = "census";
p1645
sg6
V  
p1646
sa(dp1647
g4
Vcript = document.createElement('script');
p1648
sg6
V  
p1649
sa(dp1650
g4
Vt.type = "text/javascript";
p1651
sg6
V  
p1652
sa(dp1653
g4
Vt.src = "http://search.usa.gov/javascripts/stats.js";
p1654
sg6
V  
p1655
sa(dp1656
g4
Vent.getElementsByTagName("head")[0].appendChild(script);
p1657
sg6
V  
p1658
sa(dp1659
g4
g33
sg6
V  
p1660
sasVsu
p1661
(lp1662
(dp1663
g4
Virebug (for Firefox) will be able to detect that these variables
p1664
sg6
g1661
sasV<d
p1665
(lp1666
(dp1667
g4
Vpage-container">
p1668
sg6
g1665
sa(dp1669
g4
Vcb_header" style="min-width: 960px; background-color: rgb(12,59,
p1670
sg6
V<d
p1671
sa(dp1672
g4
VCommerce" style="font-size:9px; color:#fff; position:absolute; l
p1673
sg6
V<d
p1674
sa(dp1675
g4
VCB_Logo" style="height: 44px; float: left; width: 135px; positio
p1676
sg6
V<d
p1677
sa(dp1678
g4
VmainNav" style="position:absolute; right:0px; top:6px; height: 1
p1679
sg6
V<d
p1680
sa(dp1681
g4
VCB_header_inner"  style="width: 1000px; height:80px; margin: 0pt
p1682
sg6
V<d
p1683
sa(dp1684
g4
Ve="clear:both"></div>
p1685
sg6
V<d
p1686
sa(dp1687
g4
Vsearch_items" style="width: 182px; margin: 12px 0 0 12px; positi
p1688
sg6
V<d
p1689
sa(dp1690
g4
Vcb_footer" style="background-attachment: scroll; background-colo
p1691
sg6
V<d
p1692
sa(dp1693
g4
Vfooter-links" style="margin: 15px 0pt 10px; padding: 0pt; font-s
p1694
sg6
V<d
p1695
sa(dp1696
g4
Vreviseddate">Source: U.S. Census Bureau | Application Services D
p1697
sg6
V<d
p1698
sasV<b
p1699
(lp1700
(dp1701
g4
g33
sg6
g1699
sasV <
p1702
(lp1703
(dp1704
g4
Vss="menu" id="peopleOuter" style="width: 945px; overflow: hidden
p1705
sg6
g1702
sa(dp1706
g4
V--END People Menu Outer-->
p1707
sg6
V <
p1708
sa(dp1709
g4
V"businessOuter" style="width: 632px; overflow: hidden; z-index:
p1710
sg6
V <
p1711
sa(dp1712
g4
V--END Business Menu Outer-->
p1713
sg6
V <
p1714
sa(dp1715
g4
V"geoOuter" style="width: 300px; overflow: hidden; z-index: 990;
p1716
sg6
V <
p1717
sa(dp1718
g4
V--END Geography Menu Outer-->
p1719
sg6
V <
p1720
sa(dp1721
g4
V"dataOuter" style="width: 145px; overflow: hidden; z-index: 999;
p1722
sg6
V <
p1723
sa(dp1724
g4
V<!-- End Data Menu Outer-->
p1725
sg6
V <
p1726
sa(dp1727
g4
V"researchOuter" style="width: 125px; overflow: hidden; z-index:
p1728
sg6
V <
p1729
sa(dp1730
g4
V-- End Research Menu Outer-->
p1731
sg6
V <
p1732
sa(dp1733
g4
V"newsroomOuter" style="width: 130px; overflow: hidden; z-index:
p1734
sg6
V <
p1735
sa(dp1736
g4
V<!-- End Newsroom Menu Outer-->
p1737
sg6
V <
p1738
sasV<!
p1739
(lp1740
(dp1741
g4
Vhtml PUBLIC "-//W3C//DTD XHTML 1.0 Strict//EN"
p1742
sg6
g1739
sa(dp1743
g4
Vpage must contain this info, per OMB, update info as neccessary-
p1744
sg6
V<!
p1745
sa(dp1746
g4
VStyles -->
p1747
sg6
V<!
p1748
sa(dp1749
g4
VT CB Header 06/05/2013 -->
p1750
sg6
V<!
p1751
sa(dp1752
g4
Vt code for web metrics - SiteCatalyst -->
p1753
sg6
V<!
p1754
sa(dp1755
g4
Vcode for web metrics - SiteCatalyst -->
p1756
sg6
V<!
p1757
sa(dp1758
g4
g33
sg6
V<!
p1759
sa(dp1760
g4
Vader-->
p1761
sg6
V<!
p1762
sa(dp1763
g4
Vrce-->
p1764
sg6
V<!
p1765
sa(dp1766
g4
VCommerce-->
p1767
sg6
V<!
p1768
sa(dp1769
g4
Vmary Nav-->
p1770
sg6
V<!
p1771
sa(dp1772
g4
Vrimary Nav-->
p1773
sg6
V<!
p1774
sa(dp1775
g4
Vader_inner-->
p1776
sg6
V<!
p1777
sa(dp1778
g4
Vdary Nav -->
p1779
sg6
V<!
p1780
sa(dp1781
g4
Vt People Tab -->
p1782
sg6
V<!
p1783
sa(dp1784
g4
Ve Menu Outer-->
p1785
sg6
V<!
p1786
sa(dp1787
g4
Ve Menu Inner-->
p1788
sg6
V<!
p1789
sa(dp1790
g4
Vt Business Tab -->
p1791
sg6
V<!
p1792
sa(dp1793
g4
Vess Menu Outer-->
p1794
sg6
V<!
p1795
sa(dp1796
g4
Vess Menu Inner-->
p1797
sg6
V<!
p1798
sa(dp1799
g4
VGeography Tab -->
p1800
sg6
V<!
p1801
sa(dp1802
g4
Vaphy Menu Outer-->
p1803
sg6
V<!
p1804
sa(dp1805
g4
Vaphy Menu Inner-->
p1806
sg6
V<!
p1807
sa(dp1808
g4
VData Tab -->
p1809
sg6
V<!
p1810
sa(dp1811
g4
VMenu Outer-->
p1812
sg6
V<!
p1813
sa(dp1814
g4
VMenu Inner-->
p1815
sg6
V<!
p1816
sa(dp1817
g4
VResearch Tab-->
p1818
sg6
V<!
p1819
sa(dp1820
g4
Vrch Menu Outer-->
p1821
sg6
V<!
p1822
sa(dp1823
g4
Vrch Menu Inner-->
p1824
sg6
V<!
p1825
sa(dp1826
g4
VNewsroom Tab-->
p1827
sg6
V<!
p1828
sa(dp1829
g4
Voom Menu Outer-->
p1830
sg6
V<!
p1831
sa(dp1832
g4
Voom Menu Inner-->
p1833
sg6
V<!
p1834
sa(dp1835
g4
Vh-->
p1836
sg6
V<!
p1837
sa(dp1838
g4
Vn usa gov search form -->
p1839
sg6
V<!
p1840
sa(dp1841
g4
Vusa gov search form -->
p1842
sg6
V<!
p1843
sa(dp1844
g4
VSearch -->
p1845
sg6
V<!
p1846
sa(dp1847
g4
VCB Header 06/05/2013 -->
p1848
sg6
V<!
p1849
sa(dp1850
g4
Vfooter inc-->
p1851
sg6
V<!
p1852
sa(dp1853
g4
VT FOOTER 02/20/2013 -->
p1854
sg6
V<!
p1855
sa(dp1856
g4
Vr-tagline-->
p1857
sg6
V<!
p1858
sa(dp1859
g4
Vooter-tagline-->
p1860
sg6
V<!
p1861
sa(dp1862
g4
Vin Columns  -->
p1863
sg6
V<!
p1864
sa(dp1865
g4
Vn_1-->
p1866
sg6
V<!
p1867
sa(dp1868
g4
Vn_2-->
p1869
sg6
V<!
p1870
sa(dp1871
g4
Vn_3-->
p1872
sg6
V<!
p1873
sa(dp1874
g4
Vn_4-->
p1875
sg6
V<!
p1876
sa(dp1877
g4
Vn_5-->
p1878
sg6
V<!
p1879
sa(dp1880
g4
Vn_6-->
p1881
sg6
V<!
p1882
sa(dp1883
g4
VColumns  -->
p1884
sg6
V<!
p1885
sa(dp1886
g4
Vontal Navigation-->
p1887
sg6
V<!
p1888
sa(dp1889
g4
Vorizontal Navigation-->
p1890
sg6
V<!
p1891
sa(dp1892
g4
Vs Link-->
p1893
sg6
V<!
p1894
sa(dp1895
g4
Vensus Link-->
p1896
sg6
V<!
p1897
sa(dp1898
g4
Vsee Survey -->
p1899
sg6
V<!
p1900
sa(dp1901
g4
VForesee Survey -->
p1902
sg6
V<!
p1903
sa(dp1904
g4
VSearch Code -->
p1905
sg6
V<!
p1906
sa(dp1907
g4
VUSA Search Code -->
p1908
sg6
V<!
p1909
sa(dp1910
g4
VFOOTER 02/20/2013 -->
p1911
sg6
V<!
p1912
sa(dp1913
g4
Ve Page Container div -->
p1914
sg6
V<!
p1915
sa(dp1916
g4
Vcb footer -->
p1917
sg6
V<!
p1918
sa(dp1919
g4
Vooter inc-->
p1920
sg6
V<!
p1921
sasVDe
p1922
(lp1923
(dp1924
g4
Vs this page as an error page in SiteCatalyst. */
p1925
sg6
g1922
sasV</
p1926
(lp1927
(dp1928
g4
g33
sg6
g1926
sa(dp1929
g4
g33
sg6
V</
p1930
sa(dp1931
g4
g33
sg6
V</
p1932
sa(dp1933
g4
V- Close CB_Logo -->
p1934
sg6
V</
p1935
sa(dp1936
g4
g33
sg6
V</
p1937
sa(dp1938
g4
V- End People Tab -->
p1939
sg6
V</
p1940
sa(dp1941
g4
V-End Business Tab -->
p1942
sg6
V</
p1943
sa(dp1944
g4
V-End Geography Tab -->
p1945
sg6
V</
p1946
sa(dp1947
g4
VEnd Data Tab -->
p1948
sg6
V</
p1949
sa(dp1950
g4
VEnd Research Tab -->
p1951
sg6
V</
p1952
sa(dp1953
g4
VEnd Newsroom Tab -->
p1954
sg6
V</
p1955
sa(dp1956
g4
g33
sg6
V</
p1957
sa(dp1958
g4
V!--secondaryNav-->
p1959
sg6
V</
p1960
sa(dp1961
g4
V--End CB_header inner-->
p1962
sg6
V</
p1963
sa(dp1964
g4
V-- Close id search_items -->
p1965
sg6
V</
p1966
sa(dp1967
g4
V--CB_header-->
p1968
sg6
V</
p1969
sa(dp1970
g4
g33
sg6
V</
p1971
sa(dp1972
g4
V--end footer links-->
p1973
sg6
V</
p1974
sa(dp1975
g4
V--end footer content-->
p1976
sg6
V</
p1977
sa(dp1978
g4
V--end footer inner-->
p1979
sg6
V</
p1980
sa(dp1981
g4
V--end cb_footer-->
p1982
sg6
V</
p1983
sa(dp1984
g4
g33
sg6
V</
p1985
sa(dp1986
g4
g33
sg6
V</
p1987
sa(dp1988
g4
g33
sg6
V</
p1989
sa(dp1990
g4
g33
sg6
V</
p1991
sa(dp1992
g4
g33
sg6
V</
p1993
sasV<l
p1994
(lp1995
(dp1996
g4
Vf="/main/www/css/SiteDefined.css" rel="stylesheet" type="text/cs
p1997
sg6
g1994
sa(dp1998
g4
Vf="/main/css/menus.css" rel="stylesheet" type="text/css" media="
p1999
sg6
V<l
p2000
sa(dp2001
g4
Vf="/main/css/1col.css" rel="stylesheet" type="text/css" media="s
p2002
sg6
V<l
p2003
sa(dp2004
g4
Vf="/main/css/print.css" rel="stylesheet" type="text/css" media="
p2005
sg6
V<l
p2006
sa(dp2007
g4
VeopleTab" style="display: block; float: left; margin:0;  margin:
p2008
sg6
V<l
p2009
sa(dp2010
g4
VusinessTab" style="display: block; float: left; margin:0; border
p2011
sg6
V<l
p2012
sa(dp2013
g4
VeoTab" style="display: block; float: left; margin:0; border-left
p2014
sg6
V<l
p2015
sa(dp2016
g4
VataTab" style="display: block; float: left; margin:0; border-lef
p2017
sg6
V<l
p2018
sa(dp2019
g4
VesearchTab" style="display: block; float: left; margin:0; border
p2020
sg6
V<l
p2021
sa(dp2022
g4
VewsroomTab" style="display: block; float: left; margin:0; border
p2023
sg6
V<l
p2024
sasV<m
p2025
(lp2026
(dp2027
g4
Vp-equiv="Content-Type" content="text/html; charset=iso-8859-1" /
p2028
sg6
g2025
sa(dp2029
g4
Ve="DC.title" content="US Census Bureau: Page not found" />
p2030
sg6
V<m
p2031
sa(dp2032
g4
Ve="DC.description" content="US Census Bureau: Page not found" />
p2033
sg6
V<m
p2034
sa(dp2035
g4
Ve="DC.creator" content="US Census Bureau Application Services Di
p2036
sg6
V<m
p2037
sa(dp2038
g4
Ve="DC.date.created" scheme="ISO8601" content="2011-03-30" />
p2039
sg6
V<m
p2040
sa(dp2041
g4
Ve="DC.date.reviewed" scheme="ISO8601" content="2013-06-24" />
p2042
sg6
V<m
p2043
sa(dp2044
g4
Ve="DC.language" scheme="DCTERMS.RFC1766" content="EN-US" />
p2045
sg6
V<m
p2046
sa(dp2047
g4
Ve="author" content="US Census Bureau, ASD, WSCS, Laura K Yax" />
p2048
sg6
V<m
p2049
sasV<h
p2050
(lp2051
(dp2052
g4
Vns="http://www.w3.org/1999/xhtml" xml:lang="en" lang="en">
p2053
sg6
g2050
sa(dp2054
g4
g33
sg6
V<h
p2055
sa(dp2056
g4
V, the page you requested has either been moved or is no longer a
p2057
sg6
V<h
p2058
sa(dp2059
g4
Ve suggest these Gateway pages to census data:</h2>
p2060
sg6
V<h
p2061
sasV/*
p2062
(lp2063
(dp2064
g4
Vode should be placed within the Body text of 404 Error pages onl
p2065
sg6
g2062
sas.